target datalayout = "e-m:e-p270:32:32-p271:32:32-p272:64:64-i64:64-i128:128-f80:128-n8:16:32:64-S128"
target triple = "x86_64-pc-linux-gnu"

@proto_ipx = internal global i32 0, align 4
@ip_cap_handle = internal global ptr null, align 8
@arp_cap_handle = internal global ptr null, align 8

; Function Attrs: null_pointer_is_valid sspstrong uwtable
define internal zeroext i1 @capture_arcnet_common(ptr noundef %0, i32 noundef %1, i32 noundef %2, ptr noundef %3, ptr noundef %4, i1 noundef zeroext %5) #0 {
  %7 = alloca i1, align 1
  %8 = alloca ptr, align 8
  %9 = alloca i32, align 4
  %10 = alloca i32, align 4
  %11 = alloca ptr, align 8
  %12 = alloca ptr, align 8
  %13 = alloca i8, align 1
  store ptr %0, ptr %8, align 8
  store i32 %1, ptr %9, align 4
  store i32 %2, ptr %10, align 4
  store ptr %3, ptr %11, align 8
  store ptr %4, ptr %12, align 8
  %14 = zext i1 %5 to i8
  store i8 %14, ptr %13, align 1
  %15 = load i32, ptr %9, align 4
  %16 = add i32 %15, 1
  %17 = load i32, ptr %9, align 4
  %18 = icmp ugt i32 %16, %17
  br i1 %18, label %19, label %24

19:                                               ; preds = %6
  %20 = load i32, ptr %9, align 4
  %21 = add i32 %20, 1
  %22 = load i32, ptr %10, align 4
  %23 = icmp ule i32 %21, %22
  br i1 %23, label %25, label %24

24:                                               ; preds = %19, %6
  store i1 false, ptr %7, align 1
  br label %91

25:                                               ; preds = %19
  %26 = load ptr, ptr %8, align 8
  %27 = load i32, ptr %9, align 4
  %28 = sext i32 %27 to i64
  %29 = getelementptr i8, ptr %26, i64 %28
  %30 = load i8, ptr %29, align 1
  %31 = zext i8 %30 to i32
  switch i32 %31, label %89 [
    i32 240, label %32
    i32 212, label %41
    i32 241, label %77
    i32 213, label %77
    i32 250, label %86
  ]

32:                                               ; preds = %25
  %33 = load ptr, ptr @ip_cap_handle, align 8
  %34 = load ptr, ptr %8, align 8
  %35 = load i32, ptr %9, align 4
  %36 = add i32 %35, 1
  %37 = load i32, ptr %10, align 4
  %38 = load ptr, ptr %11, align 8
  %39 = load ptr, ptr %12, align 8
  %40 = call zeroext i1 @call_capture_dissector(ptr noundef %33, ptr noundef %34, i32 noundef %36, i32 noundef %37, ptr noundef %38, ptr noundef %39)
  store i1 %40, ptr %7, align 1
  br label %91

41:                                               ; preds = %25
  %42 = load i32, ptr %9, align 4
  %43 = add i32 %42, 1
  store i32 %43, ptr %9, align 4
  %44 = load i32, ptr %9, align 4
  %45 = add i32 %44, 1
  %46 = load i32, ptr %9, align 4
  %47 = icmp ugt i32 %45, %46
  br i1 %47, label %48, label %53

48:                                               ; preds = %41
  %49 = load i32, ptr %9, align 4
  %50 = add i32 %49, 1
  %51 = load i32, ptr %10, align 4
  %52 = icmp ule i32 %50, %51
  br i1 %52, label %54, label %53

53:                                               ; preds = %48, %41
  store i1 false, ptr %7, align 1
  br label %91

54:                                               ; preds = %48
  %55 = load i8, ptr %13, align 1, !range !6, !noundef !7
  %56 = trunc i8 %55 to i1
  br i1 %56, label %57, label %68

57:                                               ; preds = %54
  %58 = load ptr, ptr %8, align 8
  %59 = load i32, ptr %9, align 4
  %60 = sext i32 %59 to i64
  %61 = getelementptr i8, ptr %58, i64 %60
  %62 = load i8, ptr %61, align 1
  %63 = zext i8 %62 to i32
  %64 = icmp eq i32 %63, 255
  br i1 %64, label %65, label %68

65:                                               ; preds = %57
  %66 = load i32, ptr %9, align 4
  %67 = add i32 %66, 4
  store i32 %67, ptr %9, align 4
  br label %68

68:                                               ; preds = %65, %57, %54
  %69 = load ptr, ptr @ip_cap_handle, align 8
  %70 = load ptr, ptr %8, align 8
  %71 = load i32, ptr %9, align 4
  %72 = add i32 %71, 3
  %73 = load i32, ptr %10, align 4
  %74 = load ptr, ptr %11, align 8
  %75 = load ptr, ptr %12, align 8
  %76 = call zeroext i1 @call_capture_dissector(ptr noundef %69, ptr noundef %70, i32 noundef %72, i32 noundef %73, ptr noundef %74, ptr noundef %75)
  store i1 %76, ptr %7, align 1
  br label %91

77:                                               ; preds = %25, %25
  %78 = load ptr, ptr @arp_cap_handle, align 8
  %79 = load ptr, ptr %8, align 8
  %80 = load i32, ptr %9, align 4
  %81 = add i32 %80, 1
  %82 = load i32, ptr %10, align 4
  %83 = load ptr, ptr %11, align 8
  %84 = load ptr, ptr %12, align 8
  %85 = call zeroext i1 @call_capture_dissector(ptr noundef %78, ptr noundef %79, i32 noundef %81, i32 noundef %82, ptr noundef %83, ptr noundef %84)
  store i1 %85, ptr %7, align 1
  br label %91

86:                                               ; preds = %25
  %87 = load ptr, ptr %11, align 8
  %88 = load i32, ptr @proto_ipx, align 4
  call void @capture_dissector_increment_count(ptr noundef %87, i32 noundef %88)
  br label %90

89:                                               ; preds = %25
  store i1 false, ptr %7, align 1
  br label %91

90:                                               ; preds = %86
  store i1 true, ptr %7, align 1
  br label %91

91:                                               ; preds = %90, %89, %77, %68, %53, %32, %24
  %92 = load i1, ptr %7, align 1
  ret i1 %92
}