; Function Attrs: null_pointer_is_valid sspstrong uwtable
define internal fastcc zeroext i1 @capture_arcnet_common(ptr noundef %0, i32 noundef range(i32 2, 5) %1, i32 noundef %2, ptr noundef %3, ptr noundef %4, i1 noundef zeroext %5) unnamed_addr #0 {
  %7 = add nuw nsw i32 %1, 1
  %.not.not = icmp ult i32 %1, %2
  br i1 %.not.not, label %8, label %33

8:                                                ; preds = %6
  %9 = zext nneg i32 %1 to i64
  %10 = getelementptr i8, ptr %0, i64 %9
  %11 = load i8, ptr %10, align 1
  switch i8 %11, label %33 [
    i8 -16, label %12
    i8 -44, label %15
    i8 -15, label %28
    i8 -43, label %28
    i8 -6, label %31
  ]

12:                                               ; preds = %8
  %13 = load ptr, ptr @ip_cap_handle, align 8
  %14 = tail call zeroext i1 @call_capture_dissector(ptr noundef %13, ptr noundef %0, i32 noundef %7, i32 noundef %2, ptr noundef %3, ptr noundef %4)
  br label %33

15:                                               ; preds = %8
  %16 = add nuw nsw i32 %1, 2
  %.not = icmp ugt i32 %16, %2
  br i1 %.not, label %33, label %17

17:                                               ; preds = %15
  br i1 %5, label %18, label %24

18:                                               ; preds = %17
  %19 = zext nneg i32 %7 to i64
  %20 = getelementptr i8, ptr %0, i64 %19
  %21 = load i8, ptr %20, align 1
  %22 = icmp eq i8 %21, -1
  %23 = add nuw nsw i32 %1, 5
  %spec.select = select i1 %22, i32 %23, i32 %7
  br label %24

24:                                               ; preds = %18, %17
  %.031 = phi i32 [ %7, %17 ], [ %spec.select, %18 ]
  %25 = load ptr, ptr @ip_cap_handle, align 8
  %26 = add nuw nsw i32 %.031, 3
  %27 = tail call zeroext i1 @call_capture_dissector(ptr noundef %25, ptr noundef %0, i32 noundef %26, i32 noundef %2, ptr noundef %3, ptr noundef %4)
  br label %33

28:                                               ; preds = %8, %8
  %29 = load ptr, ptr @arp_cap_handle, align 8
  %30 = tail call zeroext i1 @call_capture_dissector(ptr noundef %29, ptr noundef %0, i32 noundef %7, i32 noundef %2, ptr noundef %3, ptr noundef %4)
  br label %33

31:                                               ; preds = %8
  %32 = load i32, ptr @proto_ipx, align 4
  tail call void @capture_dissector_increment_count(ptr noundef %3, i32 noundef %32)
  br label %33

33:                                               ; preds = %8, %15, %6, %31, %28, %24, %12
  %.0 = phi i1 [ true, %31 ], [ %30, %28 ], [ %27, %24 ], [ %14, %12 ], [ false, %6 ], [ false, %15 ], [ false, %8 ]
  ret i1 %.0
}